; Function Attrs: nounwind uwtable
define i32 @lv_display_get_inactive_time(ptr noundef readonly %0) local_unnamed_addr #0 {
  %.not = icmp eq ptr %0, null
  br i1 %.not, label %6, label %2

2:                                                ; preds = %1
  %3 = getelementptr inbounds nuw i8, ptr %0, i64 912
  %4 = load i32, ptr %3, align 8, !tbaa !32
  %5 = tail call i32 @lv_tick_elaps(i32 noundef %4) #13
  br label %.loopexit

6:                                                ; preds = %1
  %7 = tail call ptr @lv_ll_get_head(ptr noundef nonnull getelementptr inbounds nuw (i8, ptr @lv_global, i64 8)) #13
  %.not1314 = icmp eq ptr %7, null
  br i1 %.not1314, label %.loopexit, label %lv_display_get_next.exit

lv_display_get_next.exit:                         ; preds = %6, %lv_display_get_next.exit
  %.01016 = phi i32 [ %11, %lv_display_get_next.exit ], [ -1, %6 ]
  %.01115 = phi ptr [ %12, %lv_display_get_next.exit ], [ %7, %6 ]
  %8 = getelementptr inbounds nuw i8, ptr %.01115, i64 912
  %9 = load i32, ptr %8, align 8, !tbaa !32
  %10 = tail call i32 @lv_tick_elaps(i32 noundef %9) #13
  %11 = tail call i32 @llvm.umin.i32(i32 %.01016, i32 %10)
  %12 = tail call ptr @lv_ll_get_next(ptr noundef nonnull getelementptr inbounds nuw (i8, ptr @lv_global, i64 8), ptr noundef nonnull %.01115) #13
  %.not13 = icmp eq ptr %12, null
  br i1 %.not13, label %.loopexit, label %lv_display_get_next.exit, !llvm.loop !80

.loopexit:                                        ; preds = %lv_display_get_next.exit, %6, %2
  %.0 = phi i32 [ %5, %2 ], [ -1, %6 ], [ %11, %lv_display_get_next.exit ]
  ret i32 %.0
}